; Function Attrs: mustprogress nounwind optsize uwtable
define internal void @_ZN8nanobind6detail13wrap_destructIZL28nanobind_init_test_issue_extRNS_7module_EE7ExampleEEvPv(ptr noundef readonly %0) #6 personality ptr @__gxx_personality_v0 {
  %2 = load ptr, ptr %0, align 8, !tbaa !101
  %3 = getelementptr inbounds nuw i8, ptr %0, i64 16
  %4 = icmp eq ptr %2, %3
  br i1 %4, label %_ZNKSt7__cxx1112basic_stringIcSt11char_traitsIcESaIcEE11_M_is_localEv.exit.thread.i.i.i, label %_ZNKSt7__cxx1112basic_stringIcSt11char_traitsIcESaIcEE11_M_is_localEv.exit.i.i.i

_ZNKSt7__cxx1112basic_stringIcSt11char_traitsIcESaIcEE11_M_is_localEv.exit.thread.i.i.i: ; preds = %1
  %5 = getelementptr inbounds nuw i8, ptr %0, i64 8
  %6 = load i64, ptr %5, align 8, !tbaa !72
  %7 = icmp ult i64 %6, 16
  tail call void @llvm.assume(i1 %7)
  br label %_ZZL28nanobind_init_test_issue_extRN8nanobind7module_EEN7ExampleD2Ev.exit

_ZNKSt7__cxx1112basic_stringIcSt11char_traitsIcESaIcEE11_M_is_localEv.exit.i.i.i: ; preds = %1
  %8 = load i64, ptr %3, align 8, !tbaa !38
  %9 = add i64 %8, 1
  tail call void @_ZdlPvm(ptr noundef %2, i64 noundef %9) #30
  br label %_ZZL28nanobind_init_test_issue_extRN8nanobind7module_EEN7ExampleD2Ev.exit

_ZZL28nanobind_init_test_issue_extRN8nanobind7module_EEN7ExampleD2Ev.exit: ; preds = %_ZNKSt7__cxx1112basic_stringIcSt11char_traitsIcESaIcEE11_M_is_localEv.exit.thread.i.i.i, %_ZNKSt7__cxx1112basic_stringIcSt11char_traitsIcESaIcEE11_M_is_localEv.exit.i.i.i
  ret void
}